V456742,0 21421321,1 456745,0 678967,1 234123,0 111111,1 123122,0 331232,1 333333,1 123112,0 123412,2 534535,0 234532,2 234234,0 234534,1 234238,1 435674,0 456456,1 567856,1 123133333,0 678678,1 123133,1 222222,0 444444,0 123124,1 123444,0 123123,1 234523,0 345345,3 345645,1 
p0
.